target datalayout = "e-m:e-p270:32:32-p271:32:32-p272:64:64-i64:64-i128:128-f80:128-n8:16:32:64-S128"
target triple = "x86_64-pc-linux-gnu"

@.str.3 = private unnamed_addr constant [7 x i8] c"\FD7zXZ\00\00", align 1

; Function Attrs: nounwind uwtable
define internal i32 @xz_bidder_bid(ptr noundef %0, ptr noundef %1) #0 {
  %3 = alloca i32, align 4
  %4 = alloca ptr, align 8
  %5 = alloca ptr, align 8
  %6 = alloca ptr, align 8
  %7 = alloca i64, align 8
  %8 = alloca i32, align 4
  store ptr %0, ptr %4, align 8, !tbaa !11
  store ptr %1, ptr %5, align 8, !tbaa !13
  call void @llvm.lifetime.start.p0(i64 8, ptr %6) #8
  call void @llvm.lifetime.start.p0(i64 8, ptr %7) #8
  %9 = load ptr, ptr %5, align 8, !tbaa !13
  %10 = call ptr @__archive_read_filter_ahead(ptr noundef %9, i64 noundef 6, ptr noundef %7)
  store ptr %10, ptr %6, align 8, !tbaa !15
  %11 = load ptr, ptr %6, align 8, !tbaa !15
  %12 = icmp eq ptr %11, null
  br i1 %12, label %13, label %14

13:                                               ; preds = %2
  store i32 0, ptr %3, align 4
  store i32 1, ptr %8, align 4
  br label %20

14:                                               ; preds = %2
  %15 = load ptr, ptr %6, align 8, !tbaa !15
  %16 = call i32 @memcmp(ptr noundef %15, ptr noundef @.str.3, i64 noundef 6) #9
  %17 = icmp ne i32 %16, 0
  br i1 %17, label %18, label %19

18:                                               ; preds = %14
  store i32 0, ptr %3, align 4
  store i32 1, ptr %8, align 4
  br label %20

19:                                               ; preds = %14
  store i32 48, ptr %3, align 4
  store i32 1, ptr %8, align 4
  br label %20

20:                                               ; preds = %19, %18, %13
  call void @llvm.lifetime.end.p0(i64 8, ptr %7) #8
  call void @llvm.lifetime.end.p0(i64 8, ptr %6) #8
  %21 = load i32, ptr %3, align 4
  ret i32 %21
}