; Function Attrs: nounwind uwtable
define internal range(i32 0, 49) i32 @xz_bidder_bid(ptr readnone captures(none) %0, ptr noundef %1) #0 {
  %3 = alloca i64, align 8
  call void @llvm.lifetime.start.p0(i64 8, ptr nonnull %3) #10
  %4 = call ptr @__archive_read_filter_ahead(ptr noundef %1, i64 noundef 6, ptr noundef nonnull %3) #10
  %5 = icmp eq ptr %4, null
  br i1 %5, label %7, label %6

6:                                                ; preds = %2
  %bcmp = call i32 @bcmp(ptr noundef nonnull dereferenceable(6) %4, ptr noundef nonnull dereferenceable(6) @.str.3, i64 6)
  %.not = icmp eq i32 %bcmp, 0
  %. = select i1 %.not, i32 48, i32 0
  br label %7

7:                                                ; preds = %6, %2
  %.0 = phi i32 [ 0, %2 ], [ %., %6 ]
  call void @llvm.lifetime.end.p0(i64 8, ptr nonnull %3) #10
  ret i32 %.0
}